; Function Attrs: mustprogress uwtable
define void @_ZN9grpc_core27TlsChannelSecurityConnector29ChannelPendingVerifierRequestC2ENS_13RefCountedPtrIS0_EEP12grpc_closure8tsi_peerPKc(ptr noundef nonnull align 8 captures(none) dereferenceable(120) initializes((0, 16), (112, 120)) %0, ptr noundef captures(none) %1, ptr noundef %2, ptr %3, i64 %4, ptr noundef %5) unnamed_addr #3 align 2 personality ptr @__gxx_personality_v0 {
  %7 = alloca %struct.tsi_peer, align 8
  store ptr %3, ptr %7, align 8
  %8 = getelementptr inbounds nuw i8, ptr %7, i64 8
  store i64 %4, ptr %8, align 8
  store ptr null, ptr %0, align 8, !tbaa !19
  %9 = load ptr, ptr %1, align 8, !tbaa !19
  store ptr %9, ptr %0, align 8, !tbaa !19
  store ptr null, ptr %1, align 8, !tbaa !19
  %10 = getelementptr inbounds nuw i8, ptr %0, i64 112
  store ptr %2, ptr %10, align 8, !tbaa !185
  %11 = getelementptr inbounds nuw i8, ptr %0, i64 8
  invoke fastcc void @_ZN9grpc_core12_GLOBAL__N_126PendingVerifierRequestInitEPKc8tsi_peerP42grpc_tls_custom_verification_check_request(ptr noundef %5, ptr %3, i64 %4, ptr noundef %11)
          to label %12 unwind label %14

12:                                               ; preds = %6
  invoke void @_Z17tsi_peer_destructP8tsi_peer(ptr noundef nonnull %7)
          to label %13 unwind label %14

13:                                               ; preds = %12
  ret void

14:                                               ; preds = %12, %6
  %15 = landingpad { ptr, i32 }
          cleanup
  %16 = load ptr, ptr %0, align 8, !tbaa !19
  %.not.i = icmp eq ptr %16, null
  br i1 %.not.i, label %_ZN9grpc_core13RefCountedPtrINS_27TlsChannelSecurityConnectorEED2Ev.exit, label %17

17:                                               ; preds = %14
  %18 = getelementptr inbounds nuw i8, ptr %16, i64 8
  %19 = atomicrmw sub ptr %18, i64 1 acq_rel, align 8
  %20 = icmp eq i64 %19, 1
  br i1 %20, label %21, label %_ZN9grpc_core13RefCountedPtrINS_27TlsChannelSecurityConnectorEED2Ev.exit, !prof !25

21:                                               ; preds = %17
  %22 = load ptr, ptr %16, align 8, !tbaa !26
  %23 = getelementptr inbounds nuw i8, ptr %22, i64 8
  %24 = load ptr, ptr %23, align 8
  call void %24(ptr noundef nonnull align 8 dereferenceable(32) %16) #28
  br label %_ZN9grpc_core13RefCountedPtrINS_27TlsChannelSecurityConnectorEED2Ev.exit

_ZN9grpc_core13RefCountedPtrINS_27TlsChannelSecurityConnectorEED2Ev.exit: ; preds = %14, %17, %21
  resume { ptr, i32 } %15
}